target datalayout = "e-m:e-p270:32:32-p271:32:32-p272:64:64-i64:64-i128:128-f80:128-n8:16:32:64-S128"
target triple = "x86_64-pc-linux-gnu"

; Function Attrs: inlinehint mustprogress nounwind uwtable
define internal noundef i32 @_ZL13isLamAlefCharDs(i16 noundef zeroext %0) #3 {
  %2 = alloca i16, align 2
  store i16 %0, ptr %2, align 2, !tbaa !16
  %3 = load i16, ptr %2, align 2, !tbaa !16
  %4 = zext i16 %3 to i32
  %5 = icmp sge i32 %4, 65269
  br i1 %5, label %6, label %10

6:                                                ; preds = %1
  %7 = load i16, ptr %2, align 2, !tbaa !16
  %8 = zext i16 %7 to i32
  %9 = icmp sle i32 %8, 65276
  br label %10

10:                                               ; preds = %6, %1
  %11 = phi i1 [ false, %1 ], [ %9, %6 ]
  %12 = zext i1 %11 to i32
  ret i32 %12
}

; Function Attrs: inlinehint mustprogress nounwind uwtable
define internal noundef i32 @_ZL16isTashkeelCharFEDs(i16 noundef zeroext %0) #3 {
  %2 = alloca i16, align 2
  store i16 %0, ptr %2, align 2, !tbaa !16
  %3 = load i16, ptr %2, align 2, !tbaa !16
  %4 = zext i16 %3 to i32
  %5 = icmp sge i32 %4, 65136
  br i1 %5, label %6, label %10

6:                                                ; preds = %1
  %7 = load i16, ptr %2, align 2, !tbaa !16
  %8 = zext i16 %7 to i32
  %9 = icmp sle i32 %8, 65151
  br label %10

10:                                               ; preds = %6, %1
  %11 = phi i1 [ false, %1 ], [ %9, %6 ]
  %12 = zext i1 %11 to i32
  ret i32 %12
}

; Function Attrs: inlinehint mustprogress nounwind uwtable
define internal noundef i32 @_ZL10isAlefCharDs(i16 noundef zeroext %0) #3 {
  %2 = alloca i16, align 2
  store i16 %0, ptr %2, align 2, !tbaa !16
  %3 = load i16, ptr %2, align 2, !tbaa !16
  %4 = zext i16 %3 to i32
  %5 = icmp eq i32 %4, 1570
  br i1 %5, label %18, label %6

6:                                                ; preds = %1
  %7 = load i16, ptr %2, align 2, !tbaa !16
  %8 = zext i16 %7 to i32
  %9 = icmp eq i32 %8, 1571
  br i1 %9, label %18, label %10

10:                                               ; preds = %6
  %11 = load i16, ptr %2, align 2, !tbaa !16
  %12 = zext i16 %11 to i32
  %13 = icmp eq i32 %12, 1573
  br i1 %13, label %18, label %14

14:                                               ; preds = %10
  %15 = load i16, ptr %2, align 2, !tbaa !16
  %16 = zext i16 %15 to i32
  %17 = icmp eq i32 %16, 1575
  br label %18

18:                                               ; preds = %14, %10, %6, %1
  %19 = phi i1 [ true, %10 ], [ true, %6 ], [ true, %1 ], [ %17, %14 ]
  %20 = zext i1 %19 to i32
  ret i32 %20
}

; Function Attrs: mustprogress uwtable
define internal noundef i32 @_ZL13calculateSizePKDsiij(ptr noundef %0, i32 noundef %1, i32 noundef %2, i32 noundef %3) #0 {
  %5 = alloca ptr, align 8
  %6 = alloca i32, align 4
  %7 = alloca i32, align 4
  %8 = alloca i32, align 4
  %9 = alloca i32, align 4
  %10 = alloca i32, align 4
  %11 = alloca i32, align 4
  store ptr %0, ptr %5, align 8, !tbaa !3
  store i32 %1, ptr %6, align 4, !tbaa !8
  store i32 %2, ptr %7, align 4, !tbaa !8
  store i32 %3, ptr %8, align 4, !tbaa !8
  call void @llvm.lifetime.start.p0(i64 4, ptr %9) #8
  store i32 0, ptr %9, align 4, !tbaa !8
  call void @llvm.lifetime.start.p0(i64 4, ptr %10) #8
  store i32 0, ptr %10, align 4, !tbaa !8
  call void @llvm.lifetime.start.p0(i64 4, ptr %11) #8
  store i32 0, ptr %11, align 4, !tbaa !8
  %12 = load i32, ptr %6, align 4, !tbaa !8
  store i32 %12, ptr %7, align 4, !tbaa !8
  %13 = load i32, ptr %8, align 4, !tbaa !8
  %14 = and i32 %13, 24
  %15 = icmp eq i32 %14, 8
  br i1 %15, label %20, label %16

16:                                               ; preds = %4
  %17 = load i32, ptr %8, align 4, !tbaa !8
  %18 = and i32 %17, 24
  %19 = icmp eq i32 %18, 24
  br i1 %19, label %20, label %25

20:                                               ; preds = %16, %4
  %21 = load i32, ptr %8, align 4, !tbaa !8
  %22 = and i32 %21, 65539
  %23 = icmp eq i32 %22, 0
  br i1 %23, label %24, label %25

24:                                               ; preds = %20
  store i32 1, ptr %10, align 4, !tbaa !8
  br label %25

25:                                               ; preds = %24, %20, %16
  %26 = load i32, ptr %8, align 4, !tbaa !8
  %27 = and i32 %26, 24
  %28 = icmp eq i32 %27, 8
  br i1 %28, label %29, label %34

29:                                               ; preds = %25
  %30 = load i32, ptr %8, align 4, !tbaa !8
  %31 = and i32 %30, 917504
  %32 = icmp eq i32 %31, 524288
  br i1 %32, label %33, label %34

33:                                               ; preds = %29
  store i32 1, ptr %11, align 4, !tbaa !8
  br label %34

34:                                               ; preds = %33, %29, %25
  %35 = load i32, ptr %10, align 4, !tbaa !8
  %36 = icmp ne i32 %35, 0
  br i1 %36, label %40, label %37

37:                                               ; preds = %34
  %38 = load i32, ptr %11, align 4, !tbaa !8
  %39 = icmp ne i32 %38, 0
  br i1 %39, label %40, label %136

40:                                               ; preds = %37, %34
  %41 = load i32, ptr %8, align 4, !tbaa !8
  %42 = and i32 %41, 4
  %43 = icmp eq i32 %42, 4
  br i1 %43, label %44, label %87

44:                                               ; preds = %40
  store i32 0, ptr %9, align 4, !tbaa !8
  br label %45

45:                                               ; preds = %83, %44
  %46 = load i32, ptr %9, align 4, !tbaa !8
  %47 = load i32, ptr %6, align 4, !tbaa !8
  %48 = icmp slt i32 %46, %47
  br i1 %48, label %49, label %86

49:                                               ; preds = %45
  %50 = load ptr, ptr %5, align 8, !tbaa !3
  %51 = load i32, ptr %9, align 4, !tbaa !8
  %52 = sext i32 %51 to i64
  %53 = getelementptr inbounds i16, ptr %50, i64 %52
  %54 = load i16, ptr %53, align 2, !tbaa !16
  %55 = call noundef i32 @_ZL10isAlefCharDs(i16 noundef zeroext %54)
  %56 = icmp ne i32 %55, 0
  br i1 %56, label %57, label %71

57:                                               ; preds = %49
  %58 = load i32, ptr %9, align 4, !tbaa !8
  %59 = load i32, ptr %6, align 4, !tbaa !8
  %60 = sub nsw i32 %59, 1
  %61 = icmp slt i32 %58, %60
  br i1 %61, label %62, label %71

62:                                               ; preds = %57
  %63 = load ptr, ptr %5, align 8, !tbaa !3
  %64 = load i32, ptr %9, align 4, !tbaa !8
  %65 = add nsw i32 %64, 1
  %66 = sext i32 %65 to i64
  %67 = getelementptr inbounds i16, ptr %63, i64 %66
  %68 = load i16, ptr %67, align 2, !tbaa !16
  %69 = zext i16 %68 to i32
  %70 = icmp eq i32 %69, 1604
  br i1 %70, label %79, label %71

71:                                               ; preds = %62, %57, %49
  %72 = load ptr, ptr %5, align 8, !tbaa !3
  %73 = load i32, ptr %9, align 4, !tbaa !8
  %74 = sext i32 %73 to i64
  %75 = getelementptr inbounds i16, ptr %72, i64 %74
  %76 = load i16, ptr %75, align 2, !tbaa !16
  %77 = call noundef i32 @_ZL16isTashkeelCharFEDs(i16 noundef zeroext %76)
  %78 = icmp ne i32 %77, 0
  br i1 %78, label %79, label %82

79:                                               ; preds = %71, %62
  %80 = load i32, ptr %7, align 4, !tbaa !8
  %81 = add nsw i32 %80, -1
  store i32 %81, ptr %7, align 4, !tbaa !8
  br label %82

82:                                               ; preds = %79, %71
  br label %83

83:                                               ; preds = %82
  %84 = load i32, ptr %9, align 4, !tbaa !8
  %85 = add nsw i32 %84, 1
  store i32 %85, ptr %9, align 4, !tbaa !8
  br label %45, !llvm.loop !28

86:                                               ; preds = %45
  br label %135

87:                                               ; preds = %40
  %88 = load i32, ptr %8, align 4, !tbaa !8
  %89 = and i32 %88, 4
  %90 = icmp eq i32 %89, 0
  br i1 %90, label %91, label %134

91:                                               ; preds = %87
  store i32 0, ptr %9, align 4, !tbaa !8
  br label %92

92:                                               ; preds = %130, %91
  %93 = load i32, ptr %9, align 4, !tbaa !8
  %94 = load i32, ptr %6, align 4, !tbaa !8
  %95 = icmp slt i32 %93, %94
  br i1 %95, label %96, label %133

96:                                               ; preds = %92
  %97 = load ptr, ptr %5, align 8, !tbaa !3
  %98 = load i32, ptr %9, align 4, !tbaa !8
  %99 = sext i32 %98 to i64
  %100 = getelementptr inbounds i16, ptr %97, i64 %99
  %101 = load i16, ptr %100, align 2, !tbaa !16
  %102 = zext i16 %101 to i32
  %103 = icmp eq i32 %102, 1604
  br i1 %103, label %104, label %118

104:                                              ; preds = %96
  %105 = load i32, ptr %9, align 4, !tbaa !8
  %106 = load i32, ptr %6, align 4, !tbaa !8
  %107 = sub nsw i32 %106, 1
  %108 = icmp slt i32 %105, %107
  br i1 %108, label %109, label %118

109:                                              ; preds = %104
  %110 = load ptr, ptr %5, align 8, !tbaa !3
  %111 = load i32, ptr %9, align 4, !tbaa !8
  %112 = add nsw i32 %111, 1
  %113 = sext i32 %112 to i64
  %114 = getelementptr inbounds i16, ptr %110, i64 %113
  %115 = load i16, ptr %114, align 2, !tbaa !16
  %116 = call noundef i32 @_ZL10isAlefCharDs(i16 noundef zeroext %115)
  %117 = icmp ne i32 %116, 0
  br i1 %117, label %126, label %118

118:                                              ; preds = %109, %104, %96
  %119 = load ptr, ptr %5, align 8, !tbaa !3
  %120 = load i32, ptr %9, align 4, !tbaa !8
  %121 = sext i32 %120 to i64
  %122 = getelementptr inbounds i16, ptr %119, i64 %121
  %123 = load i16, ptr %122, align 2, !tbaa !16
  %124 = call noundef i32 @_ZL16isTashkeelCharFEDs(i16 noundef zeroext %123)
  %125 = icmp ne i32 %124, 0
  br i1 %125, label %126, label %129

126:                                              ; preds = %118, %109
  %127 = load i32, ptr %7, align 4, !tbaa !8
  %128 = add nsw i32 %127, -1
  store i32 %128, ptr %7, align 4, !tbaa !8
  br label %129

129:                                              ; preds = %126, %118
  br label %130

130:                                              ; preds = %129
  %131 = load i32, ptr %9, align 4, !tbaa !8
  %132 = add nsw i32 %131, 1
  store i32 %132, ptr %9, align 4, !tbaa !8
  br label %92, !llvm.loop !29

133:                                              ; preds = %92
  br label %134

134:                                              ; preds = %133, %87
  br label %135

135:                                              ; preds = %134, %86
  br label %136

136:                                              ; preds = %135, %37
  %137 = load i32, ptr %8, align 4, !tbaa !8
  %138 = and i32 %137, 24
  %139 = icmp eq i32 %138, 16
  br i1 %139, label %140, label %166

140:                                              ; preds = %136
  %141 = load i32, ptr %8, align 4, !tbaa !8
  %142 = and i32 %141, 65539
  %143 = icmp eq i32 %142, 0
  br i1 %143, label %144, label %165

144:                                              ; preds = %140
  store i32 0, ptr %9, align 4, !tbaa !8
  br label %145

145:                                              ; preds = %161, %144
  %146 = load i32, ptr %9, align 4, !tbaa !8
  %147 = load i32, ptr %6, align 4, !tbaa !8
  %148 = icmp slt i32 %146, %147
  br i1 %148, label %149, label %164

149:                                              ; preds = %145
  %150 = load ptr, ptr %5, align 8, !tbaa !3
  %151 = load i32, ptr %9, align 4, !tbaa !8
  %152 = sext i32 %151 to i64
  %153 = getelementptr inbounds i16, ptr %150, i64 %152
  %154 = load i16, ptr %153, align 2, !tbaa !16
  %155 = call noundef i32 @_ZL13isLamAlefCharDs(i16 noundef zeroext %154)
  %156 = icmp ne i32 %155, 0
  br i1 %156, label %157, label %160

157:                                              ; preds = %149
  %158 = load i32, ptr %7, align 4, !tbaa !8
  %159 = add nsw i32 %158, 1
  store i32 %159, ptr %7, align 4, !tbaa !8
  br label %160

160:                                              ; preds = %157, %149
  br label %161

161:                                              ; preds = %160
  %162 = load i32, ptr %9, align 4, !tbaa !8
  %163 = add nsw i32 %162, 1
  store i32 %163, ptr %9, align 4, !tbaa !8
  br label %145, !llvm.loop !30

164:                                              ; preds = %145
  br label %165

165:                                              ; preds = %164, %140
  br label %166

166:                                              ; preds = %165, %136
  %167 = load i32, ptr %7, align 4, !tbaa !8
  call void @llvm.lifetime.end.p0(i64 4, ptr %11) #8
  call void @llvm.lifetime.end.p0(i64 4, ptr %10) #8
  call void @llvm.lifetime.end.p0(i64 4, ptr %9) #8
  ret i32 %167
}