; Function Attrs: mustprogress nofree norecurse nosync nounwind willreturn memory(argmem: read) uwtable
define internal fastcc noundef i32 @_ZL13calculateSizePKDsiij(ptr noundef readonly captures(none) %0, i32 noundef %1, i32 noundef %2) unnamed_addr #6 {
  %4 = and i32 %2, 65547
  %or.cond59 = icmp eq i32 %4, 8
  %5 = and i32 %2, 917528
  %or.cond61 = icmp eq i32 %5, 524296
  %or.cond = or i1 %or.cond59, %or.cond61
  br i1 %or.cond, label %6, label %.loopexit78

6:                                                ; preds = %3
  %7 = and i32 %2, 4
  %.not = icmp eq i32 %7, 0
  %8 = icmp sgt i32 %1, 0
  br i1 %.not, label %.preheader77, label %.preheader79

.preheader79:                                     ; preds = %6
  br i1 %8, label %.lr.ph, label %.loopexit

.lr.ph:                                           ; preds = %.preheader79
  %9 = add nsw i32 %1, -1
  %10 = zext nneg i32 %9 to i64
  %wide.trip.count = zext nneg i32 %1 to i64
  br label %13

.preheader77:                                     ; preds = %6
  br i1 %8, label %.lr.ph85, label %.loopexit

.lr.ph85:                                         ; preds = %.preheader77
  %11 = add nsw i32 %1, -1
  %12 = zext nneg i32 %11 to i64
  %wide.trip.count98 = zext nneg i32 %1 to i64
  br label %24

13:                                               ; preds = %.lr.ph, %23
  %indvars.iv = phi i64 [ 0, %.lr.ph ], [ %indvars.iv.next, %23 ]
  %.14681 = phi i32 [ %1, %.lr.ph ], [ %.247, %23 ]
  %14 = getelementptr inbounds nuw i16, ptr %0, i64 %indvars.iv
  %15 = load i16, ptr %14, align 2, !tbaa !9
  switch i16 %15, label %_ZL10isAlefCharDs.exit.thread [
    i16 1573, label %_ZL10isAlefCharDs.exit
    i16 1571, label %_ZL10isAlefCharDs.exit
    i16 1570, label %_ZL10isAlefCharDs.exit
    i16 1575, label %_ZL10isAlefCharDs.exit
  ]

_ZL10isAlefCharDs.exit:                           ; preds = %13, %13, %13, %13
  %16 = icmp samesign ult i64 %indvars.iv, %10
  br i1 %16, label %17, label %_ZL10isAlefCharDs.exit.thread

17:                                               ; preds = %_ZL10isAlefCharDs.exit
  %18 = getelementptr inbounds nuw i8, ptr %14, i64 2
  %19 = load i16, ptr %18, align 2, !tbaa !9
  %20 = icmp eq i16 %19, 1604
  br i1 %20, label %21, label %23

_ZL10isAlefCharDs.exit.thread:                    ; preds = %13, %_ZL10isAlefCharDs.exit
  %.old = and i16 %15, -16
  %.not73.old = icmp eq i16 %.old, -400
  br i1 %.not73.old, label %21, label %23

21:                                               ; preds = %_ZL10isAlefCharDs.exit.thread, %17
  %22 = add nsw i32 %.14681, -1
  br label %23

23:                                               ; preds = %17, %_ZL10isAlefCharDs.exit.thread, %21
  %.247 = phi i32 [ %22, %21 ], [ %.14681, %_ZL10isAlefCharDs.exit.thread ], [ %.14681, %17 ]
  %indvars.iv.next = add nuw nsw i64 %indvars.iv, 1
  %exitcond.not = icmp eq i64 %indvars.iv.next, %wide.trip.count
  br i1 %exitcond.not, label %.loopexit78, label %13, !llvm.loop !17

24:                                               ; preds = %.lr.ph85, %.thread
  %indvars.iv95 = phi i64 [ 0, %.lr.ph85 ], [ %indvars.iv.next96, %.thread ]
  %.383 = phi i32 [ %1, %.lr.ph85 ], [ %.4, %.thread ]
  %25 = getelementptr inbounds nuw i16, ptr %0, i64 %indvars.iv95
  %26 = load i16, ptr %25, align 2, !tbaa !9
  %27 = icmp eq i16 %26, 1604
  %28 = icmp samesign ult i64 %indvars.iv95, %12
  %or.cond65 = select i1 %27, i1 %28, i1 false
  br i1 %or.cond65, label %29, label %32

29:                                               ; preds = %24
  %30 = getelementptr inbounds nuw i8, ptr %25, i64 2
  %31 = load i16, ptr %30, align 2, !tbaa !9
  switch i16 %31, label %.thread [
    i16 1573, label %_ZL10isAlefCharDs.exit70.thread
    i16 1571, label %_ZL10isAlefCharDs.exit70.thread
    i16 1570, label %_ZL10isAlefCharDs.exit70.thread
    i16 1575, label %_ZL10isAlefCharDs.exit70.thread
  ]

32:                                               ; preds = %24
  %33 = and i16 %26, -16
  %.not74 = icmp eq i16 %33, -400
  br i1 %.not74, label %_ZL10isAlefCharDs.exit70.thread, label %.thread

_ZL10isAlefCharDs.exit70.thread:                  ; preds = %29, %29, %29, %29, %32
  %34 = add nsw i32 %.383, -1
  br label %.thread

.thread:                                          ; preds = %29, %32, %_ZL10isAlefCharDs.exit70.thread
  %.4 = phi i32 [ %34, %_ZL10isAlefCharDs.exit70.thread ], [ %.383, %32 ], [ %.383, %29 ]
  %indvars.iv.next96 = add nuw nsw i64 %indvars.iv95, 1
  %exitcond99.not = icmp eq i64 %indvars.iv.next96, %wide.trip.count98
  br i1 %exitcond99.not, label %.loopexit78, label %24, !llvm.loop !18

.loopexit78:                                      ; preds = %23, %.thread, %3
  %.045 = phi i32 [ %1, %3 ], [ %.4, %.thread ], [ %.247, %23 ]
  %35 = and i32 %2, 65563
  %or.cond67 = icmp eq i32 %35, 16
  %36 = icmp sgt i32 %1, 0
  %or.cond92 = and i1 %or.cond67, %36
  br i1 %or.cond92, label %.lr.ph89.preheader, label %.loopexit

.lr.ph89.preheader:                               ; preds = %.loopexit78
  %wide.trip.count103 = zext nneg i32 %1 to i64
  br label %.lr.ph89

.lr.ph89:                                         ; preds = %.lr.ph89.preheader, %.lr.ph89
  %indvars.iv100 = phi i64 [ 0, %.lr.ph89.preheader ], [ %indvars.iv.next101, %.lr.ph89 ]
  %.687 = phi i32 [ %.045, %.lr.ph89.preheader ], [ %spec.select, %.lr.ph89 ]
  %37 = getelementptr inbounds nuw i16, ptr %0, i64 %indvars.iv100
  %38 = load i16, ptr %37, align 2, !tbaa !9
  %39 = add i16 %38, 267
  %40 = icmp ult i16 %39, 8
  %41 = zext i1 %40 to i32
  %spec.select = add nsw i32 %.687, %41
  %indvars.iv.next101 = add nuw nsw i64 %indvars.iv100, 1
  %exitcond104.not = icmp eq i64 %indvars.iv.next101, %wide.trip.count103
  br i1 %exitcond104.not, label %.loopexit, label %.lr.ph89, !llvm.loop !19

.loopexit:                                        ; preds = %.lr.ph89, %.preheader77, %.preheader79, %.loopexit78
  %.5 = phi i32 [ %.045, %.loopexit78 ], [ %1, %.preheader79 ], [ %1, %.preheader77 ], [ %spec.select, %.lr.ph89 ]
  ret i32 %.5
}